target datalayout = "e-m:e-p270:32:32-p271:32:32-p272:64:64-i64:64-i128:128-f80:128-n8:16:32:64-S128"
target triple = "x86_64-pc-linux-gnu"

%union.pthread_mutex_t = type { %struct.__pthread_mutex_s }
%struct.__pthread_mutex_s = type { i32, i32, i32, i32, i32, i16, i16, %struct.__pthread_internal_list }
%struct.__pthread_internal_list = type { ptr, ptr }
%struct.slurm_conf_t = type { i64, ptr, i16, ptr, ptr, ptr, ptr, ptr, i16, ptr, ptr, ptr, ptr, ptr, ptr, ptr, i16, ptr, ptr, ptr, ptr, i16, ptr, ptr, ptr, i64, ptr, ptr, ptr, ptr, i16, ptr, ptr, i16, i32, ptr, i32, ptr, i32, i32, ptr, ptr, i64, i64, ptr, i16, i16, ptr, i32, i32, ptr, i32, ptr, i32, i16, i16, i16, ptr, i16, i16, ptr, ptr, i32, i16, i16, ptr, i32, i16, ptr, ptr, ptr, ptr, i16, ptr, ptr, ptr, ptr, i32, ptr, ptr, ptr, ptr, i16, i16, ptr, i32, i32, i32, i16, i16, ptr, ptr, i16, ptr, ptr, i32, i32, i32, i32, i32, i64, i32, i32, i16, ptr, ptr, i32, ptr, ptr, ptr, i16, i32, ptr, ptr, i16, ptr, ptr, i32, i16, ptr, ptr, ptr, ptr, i32, i32, i16, i16, i32, ptr, i16, ptr, i32, i32, i32, i32, i32, i32, ptr, i16, ptr, ptr, i32, i16, ptr, i32, i16, i16, ptr, ptr, ptr, i16, ptr, ptr, ptr, ptr, i16, i16, ptr, i16, ptr, i16, ptr, i16, ptr, i16, ptr, ptr, ptr, ptr, i16, ptr, ptr, ptr, i32, ptr, i32, ptr, ptr, i16, ptr, ptr, i32, i16, ptr, ptr, i16, i16, ptr, i16, ptr, ptr, ptr, i32, ptr, i16, i16, ptr, ptr, ptr, ptr, ptr, ptr, ptr, ptr, i16, i32, i16, ptr, ptr, ptr, ptr, i32, ptr, ptr, ptr, i16, ptr, ptr, ptr, i16, ptr, i16, ptr, i16, i16, ptr }
%struct.cli_filter_ops = type { ptr, ptr, ptr }

@.str = private unnamed_addr constant [11 x i8] c"cli_filter\00", align 1
@g_context_lock = internal global %union.pthread_mutex_t zeroinitializer, align 8
@.str.1 = private unnamed_addr constant [29 x i8] c"%s: pthread_mutex_lock(): %m\00", align 1
@__func__.cli_filter_init = private unnamed_addr constant [16 x i8] c"cli_filter_init\00", align 1
@g_context_cnt = internal global i32 -1, align 4
@slurm_conf = external global %struct.slurm_conf_t, align 8
@.str.2 = private unnamed_addr constant [2 x i8] c",\00", align 1
@ops = internal global ptr null, align 8
@.str.3 = private unnamed_addr constant [13 x i8] c"cli_filter.c\00", align 1
@g_context = internal global ptr null, align 8
@.str.4 = private unnamed_addr constant [12 x i8] c"cli_filter/\00", align 1
@.str.5 = private unnamed_addr constant [14 x i8] c"cli_filter/%s\00", align 1
@syms = internal global [3 x ptr] [ptr @.str.8, ptr @.str.9, ptr @.str.10], align 16
@.str.6 = private unnamed_addr constant [32 x i8] c"cannot create %s context for %s\00", align 1
@.str.7 = private unnamed_addr constant [31 x i8] c"%s: pthread_mutex_unlock(): %m\00", align 1

; Function Attrs: nounwind uwtable
define dso_local i32 @cli_filter_init() #0 {
  %1 = alloca i32, align 4
  %2 = alloca ptr, align 8
  %3 = alloca ptr, align 8
  %4 = alloca ptr, align 8
  %5 = alloca ptr, align 8
  %6 = alloca ptr, align 8
  %7 = alloca i32, align 4
  %8 = alloca i32, align 4
  call void @llvm.lifetime.start.p0(i64 4, ptr %1) #7
  store i32 0, ptr %1, align 4
  call void @llvm.lifetime.start.p0(i64 8, ptr %2) #7
  store ptr null, ptr %2, align 8
  call void @llvm.lifetime.start.p0(i64 8, ptr %3) #7
  call void @llvm.lifetime.start.p0(i64 8, ptr %4) #7
  store ptr @.str, ptr %4, align 8
  call void @llvm.lifetime.start.p0(i64 8, ptr %5) #7
  call void @llvm.lifetime.start.p0(i64 8, ptr %6) #7
  br label %9

9:                                                ; preds = %0
  call void @llvm.lifetime.start.p0(i64 4, ptr %7) #7
  %10 = call i32 @pthread_mutex_lock(ptr noundef @g_context_lock) #7
  store i32 %10, ptr %7, align 4
  %11 = load i32, ptr %7, align 4
  %12 = icmp ne i32 %11, 0
  br i1 %12, label %13, label %16

13:                                               ; preds = %9
  %14 = load i32, ptr %7, align 4
  %15 = call ptr @__errno_location() #8
  store i32 %14, ptr %15, align 4
  call void (ptr, ...) @fatal_abort(ptr noundef @.str.1, ptr noundef @__func__.cli_filter_init) #9
  unreachable

16:                                               ; preds = %9
  call void @llvm.lifetime.end.p0(i64 4, ptr %7) #7
  br label %17

17:                                               ; preds = %16
  br label %18

18:                                               ; preds = %17
  %19 = load i32, ptr @g_context_cnt, align 4
  %20 = icmp sge i32 %19, 0
  br i1 %20, label %21, label %22

21:                                               ; preds = %18
  br label %81

22:                                               ; preds = %18
  store i32 0, ptr @g_context_cnt, align 4
  %23 = load ptr, ptr getelementptr inbounds nuw (%struct.slurm_conf_t, ptr @slurm_conf, i32 0, i32 29), align 8
  %24 = icmp ne ptr %23, null
  br i1 %24, label %25, label %30

25:                                               ; preds = %22
  %26 = load ptr, ptr getelementptr inbounds nuw (%struct.slurm_conf_t, ptr @slurm_conf, i32 0, i32 29), align 8
  %27 = getelementptr inbounds i8, ptr %26, i64 0
  %28 = load i8, ptr %27, align 1
  %29 = icmp ne i8 %28, 0
  br i1 %29, label %31, label %30

30:                                               ; preds = %25, %22
  br label %81

31:                                               ; preds = %25
  %32 = load ptr, ptr getelementptr inbounds nuw (%struct.slurm_conf_t, ptr @slurm_conf, i32 0, i32 29), align 8
  %33 = call ptr @xstrdup(ptr noundef %32)
  store ptr %33, ptr %6, align 8
  store ptr %33, ptr %3, align 8
  br label %34

34:                                               ; preds = %77, %31
  %35 = load ptr, ptr %3, align 8
  %36 = call ptr @strtok_r(ptr noundef %35, ptr noundef @.str.2, ptr noundef %2) #7
  store ptr %36, ptr %5, align 8
  %37 = icmp ne ptr %36, null
  br i1 %37, label %38, label %80

38:                                               ; preds = %34
  %39 = load i32, ptr @g_context_cnt, align 4
  %40 = add nsw i32 %39, 1
  %41 = sext i32 %40 to i64
  %42 = call ptr @slurm_xrecalloc(ptr noundef @ops, i64 noundef %41, i64 noundef 24, i1 noundef zeroext true, i1 noundef zeroext false, ptr noundef @.str.3, i32 noundef 104, ptr noundef @__func__.cli_filter_init)
  %43 = load i32, ptr @g_context_cnt, align 4
  %44 = add nsw i32 %43, 1
  %45 = sext i32 %44 to i64
  %46 = call ptr @slurm_xrecalloc(ptr noundef @g_context, i64 noundef %45, i64 noundef 8, i1 noundef zeroext true, i1 noundef zeroext false, ptr noundef @.str.3, i32 noundef 106, ptr noundef @__func__.cli_filter_init)
  %47 = load ptr, ptr %5, align 8
  %48 = call i32 @xstrncmp(ptr noundef %47, ptr noundef @.str.4, i64 noundef 11)
  %49 = icmp eq i32 %48, 0
  br i1 %49, label %50, label %53

50:                                               ; preds = %38
  %51 = load ptr, ptr %5, align 8
  %52 = getelementptr inbounds i8, ptr %51, i64 11
  store ptr %52, ptr %5, align 8
  br label %53

53:                                               ; preds = %50, %38
  %54 = load ptr, ptr %5, align 8
  %55 = call ptr (ptr, ...) @xstrdup_printf(ptr noundef @.str.5, ptr noundef %54)
  store ptr %55, ptr %5, align 8
  %56 = load ptr, ptr %4, align 8
  %57 = load ptr, ptr %5, align 8
  %58 = load ptr, ptr @ops, align 8
  %59 = load i32, ptr @g_context_cnt, align 4
  %60 = sext i32 %59 to i64
  %61 = getelementptr inbounds %struct.cli_filter_ops, ptr %58, i64 %60
  %62 = call ptr @plugin_context_create(ptr noundef %56, ptr noundef %57, ptr noundef %61, ptr noundef @syms, i64 noundef 24)
  %63 = load ptr, ptr @g_context, align 8
  %64 = load i32, ptr @g_context_cnt, align 4
  %65 = sext i32 %64 to i64
  %66 = getelementptr inbounds ptr, ptr %63, i64 %65
  store ptr %62, ptr %66, align 8
  %67 = load ptr, ptr @g_context, align 8
  %68 = load i32, ptr @g_context_cnt, align 4
  %69 = sext i32 %68 to i64
  %70 = getelementptr inbounds ptr, ptr %67, i64 %69
  %71 = load ptr, ptr %70, align 8
  %72 = icmp ne ptr %71, null
  br i1 %72, label %77, label %73

73:                                               ; preds = %53
  %74 = load ptr, ptr %4, align 8
  %75 = load ptr, ptr %5, align 8
  %76 = call i32 (ptr, ...) @error(ptr noundef @.str.6, ptr noundef %74, ptr noundef %75)
  store i32 -1, ptr %1, align 4
  call void @slurm_xfree(ptr noundef %5)
  br label %80

77:                                               ; preds = %53
  call void @slurm_xfree(ptr noundef %5)
  %78 = load i32, ptr @g_context_cnt, align 4
  %79 = add nsw i32 %78, 1
  store i32 %79, ptr @g_context_cnt, align 4
  store ptr null, ptr %3, align 8
  br label %34, !llvm.loop !8

80:                                               ; preds = %73, %34
  call void @slurm_xfree(ptr noundef %6)
  br label %81

81:                                               ; preds = %80, %30, %21
  br label %82

82:                                               ; preds = %81
  call void @llvm.lifetime.start.p0(i64 4, ptr %8) #7
  %83 = call i32 @pthread_mutex_unlock(ptr noundef @g_context_lock) #7
  store i32 %83, ptr %8, align 4
  %84 = load i32, ptr %8, align 4
  %85 = icmp ne i32 %84, 0
  br i1 %85, label %86, label %89

86:                                               ; preds = %82
  %87 = load i32, ptr %8, align 4
  %88 = call ptr @__errno_location() #8
  store i32 %87, ptr %88, align 4
  call void (ptr, ...) @fatal_abort(ptr noundef @.str.7, ptr noundef @__func__.cli_filter_init) #9
  unreachable

89:                                               ; preds = %82
  call void @llvm.lifetime.end.p0(i64 4, ptr %8) #7
  br label %90

90:                                               ; preds = %89
  br label %91

91:                                               ; preds = %90
  %92 = load i32, ptr %1, align 4
  %93 = icmp ne i32 %92, 0
  br i1 %93, label %94, label %96

94:                                               ; preds = %91
  %95 = call i32 @cli_filter_fini()
  br label %96

96:                                               ; preds = %94, %91
  %97 = load i32, ptr %1, align 4
  call void @llvm.lifetime.end.p0(i64 8, ptr %6) #7
  call void @llvm.lifetime.end.p0(i64 8, ptr %5) #7
  call void @llvm.lifetime.end.p0(i64 8, ptr %4) #7
  call void @llvm.lifetime.end.p0(i64 8, ptr %3) #7
  call void @llvm.lifetime.end.p0(i64 8, ptr %2) #7
  call void @llvm.lifetime.end.p0(i64 4, ptr %1) #7
  ret i32 %97
}