; Function Attrs: nounwind uwtable
define dso_local range(i32 -1, 1) i32 @cli_filter_init() local_unnamed_addr #0 {
  %1 = alloca ptr, align 8
  %2 = alloca ptr, align 8
  %3 = alloca ptr, align 8
  call void @llvm.lifetime.start.p0(i64 8, ptr nonnull %1) #9
  store ptr null, ptr %1, align 8
  call void @llvm.lifetime.start.p0(i64 8, ptr nonnull %2) #9
  call void @llvm.lifetime.start.p0(i64 8, ptr nonnull %3) #9
  %4 = tail call i32 @pthread_mutex_lock(ptr noundef nonnull @g_context_lock) #9
  %.not = icmp eq i32 %4, 0
  br i1 %.not, label %7, label %5

5:                                                ; preds = %0
  %6 = tail call ptr @__errno_location() #10
  store i32 %4, ptr %6, align 4
  tail call void (ptr, ...) @fatal_abort(ptr noundef nonnull @.str.1, ptr noundef nonnull @__func__.cli_filter_init) #11
  unreachable

7:                                                ; preds = %0
  %8 = load i32, ptr @g_context_cnt, align 4
  %9 = icmp sgt i32 %8, -1
  br i1 %9, label %52, label %10

10:                                               ; preds = %7
  store i32 0, ptr @g_context_cnt, align 4
  %11 = load ptr, ptr getelementptr inbounds nuw (i8, ptr @slurm_conf, i64 232), align 8
  %.not12 = icmp eq ptr %11, null
  br i1 %.not12, label %52, label %12

12:                                               ; preds = %10
  %13 = load i8, ptr %11, align 1
  %.not13 = icmp eq i8 %13, 0
  br i1 %.not13, label %52, label %14

14:                                               ; preds = %12
  %15 = tail call ptr @xstrdup(ptr noundef nonnull %11) #9
  store ptr %15, ptr %3, align 8
  %16 = call ptr @strtok_r(ptr noundef %15, ptr noundef nonnull @.str.2, ptr noundef nonnull %1) #9
  store ptr %16, ptr %2, align 8
  %.not1418 = icmp eq ptr %16, null
  br i1 %.not1418, label %.loopexit, label %.lr.ph

.lr.ph:                                           ; preds = %14, %48
  %17 = load i32, ptr @g_context_cnt, align 4
  %18 = add nsw i32 %17, 1
  %19 = sext i32 %18 to i64
  %20 = call ptr @slurm_xrecalloc(ptr noundef nonnull @ops, i64 noundef %19, i64 noundef 24, i1 noundef zeroext true, i1 noundef zeroext false, ptr noundef nonnull @.str.3, i32 noundef 104, ptr noundef nonnull @__func__.cli_filter_init) #9
  %21 = load i32, ptr @g_context_cnt, align 4
  %22 = add nsw i32 %21, 1
  %23 = sext i32 %22 to i64
  %24 = call ptr @slurm_xrecalloc(ptr noundef nonnull @g_context, i64 noundef %23, i64 noundef 8, i1 noundef zeroext true, i1 noundef zeroext false, ptr noundef nonnull @.str.3, i32 noundef 106, ptr noundef nonnull @__func__.cli_filter_init) #9
  %25 = load ptr, ptr %2, align 8
  %26 = call i32 @xstrncmp(ptr noundef %25, ptr noundef nonnull @.str.4, i64 noundef 11) #9
  %27 = icmp eq i32 %26, 0
  %.pre = load ptr, ptr %2, align 8
  br i1 %27, label %28, label %30

28:                                               ; preds = %.lr.ph
  %29 = getelementptr inbounds nuw i8, ptr %.pre, i64 11
  store ptr %29, ptr %2, align 8
  br label %30

30:                                               ; preds = %28, %.lr.ph
  %31 = phi ptr [ %29, %28 ], [ %.pre, %.lr.ph ]
  %32 = call ptr (ptr, ...) @xstrdup_printf(ptr noundef nonnull @.str.5, ptr noundef %31) #9
  store ptr %32, ptr %2, align 8
  %33 = load ptr, ptr @ops, align 8
  %34 = load i32, ptr @g_context_cnt, align 4
  %35 = sext i32 %34 to i64
  %36 = getelementptr inbounds %struct.cli_filter_ops, ptr %33, i64 %35
  %37 = call ptr @plugin_context_create(ptr noundef nonnull @.str, ptr noundef %32, ptr noundef %36, ptr noundef nonnull @syms, i64 noundef 24) #9
  %38 = load ptr, ptr @g_context, align 8
  %39 = load i32, ptr @g_context_cnt, align 4
  %40 = sext i32 %39 to i64
  %41 = getelementptr inbounds ptr, ptr %38, i64 %40
  store ptr %37, ptr %41, align 8
  %42 = load ptr, ptr @g_context, align 8
  %43 = getelementptr inbounds ptr, ptr %42, i64 %40
  %44 = load ptr, ptr %43, align 8
  %.not15 = icmp eq ptr %44, null
  br i1 %.not15, label %45, label %48

45:                                               ; preds = %30
  %46 = load ptr, ptr %2, align 8
  %47 = call i32 (ptr, ...) @error(ptr noundef nonnull @.str.6, ptr noundef nonnull @.str, ptr noundef %46) #9
  call void @slurm_xfree(ptr noundef nonnull %2) #9
  br label %.loopexit

48:                                               ; preds = %30
  call void @slurm_xfree(ptr noundef nonnull %2) #9
  %49 = load i32, ptr @g_context_cnt, align 4
  %50 = add nsw i32 %49, 1
  store i32 %50, ptr @g_context_cnt, align 4
  %51 = call ptr @strtok_r(ptr noundef null, ptr noundef nonnull @.str.2, ptr noundef nonnull %1) #9
  store ptr %51, ptr %2, align 8
  %.not14 = icmp eq ptr %51, null
  br i1 %.not14, label %.loopexit, label %.lr.ph, !llvm.loop !8

.loopexit:                                        ; preds = %48, %14, %45
  %.0 = phi i32 [ -1, %45 ], [ 0, %14 ], [ 0, %48 ]
  call void @slurm_xfree(ptr noundef nonnull %3) #9
  br label %52

52:                                               ; preds = %.loopexit, %7, %12, %10
  %.1 = phi i32 [ 0, %7 ], [ %.0, %.loopexit ], [ 0, %12 ], [ 0, %10 ]
  %53 = call i32 @pthread_mutex_unlock(ptr noundef nonnull @g_context_lock) #9
  %.not16 = icmp eq i32 %53, 0
  br i1 %.not16, label %56, label %54

54:                                               ; preds = %52
  %55 = tail call ptr @__errno_location() #10
  store i32 %53, ptr %55, align 4
  call void (ptr, ...) @fatal_abort(ptr noundef nonnull @.str.7, ptr noundef nonnull @__func__.cli_filter_init) #11
  unreachable

56:                                               ; preds = %52
  %.not17 = icmp eq i32 %.1, 0
  br i1 %.not17, label %59, label %57

57:                                               ; preds = %56
  %58 = call i32 @cli_filter_fini()
  br label %59

59:                                               ; preds = %57, %56
  call void @llvm.lifetime.end.p0(i64 8, ptr nonnull %3) #9
  call void @llvm.lifetime.end.p0(i64 8, ptr nonnull %2) #9
  call void @llvm.lifetime.end.p0(i64 8, ptr nonnull %1) #9
  ret i32 %.1
}